target datalayout = "e-m:e-p270:32:32-p271:32:32-p272:64:64-i64:64-i128:128-f80:128-n8:16:32:64-S128"
target triple = "x86_64-unknown-linux-gnu"

%"struct.OpenImageIO_v2_6_0::TypeDesc" = type { i8, i8, i8, i8, i32 }
%"class.OpenImageIO_v2_6_0::DDSInput" = type <{ %"class.OpenImageIO_v2_6_0::ImageInput", %"class.std::__cxx11::basic_string", %"class.std::vector.16", i32, i32, i32, i32, i32, [4 x i32], [4 x i32], i32, %"struct.OpenImageIO_v2_6_0::DDS_pvt::dds_header", %"struct.OpenImageIO_v2_6_0::DDS_pvt::dds_header_dx10", [4 x i8] }>
%"class.OpenImageIO_v2_6_0::ImageInput" = type { ptr, %"class.OpenImageIO_v2_6_0::ImageSpec", %"class.std::unique_ptr" }
%"class.OpenImageIO_v2_6_0::ImageSpec" = type { i32, i32, i32, i32, i32, i32, i32, i32, i32, i32, i32, i32, i32, i32, i32, i32, %"struct.OpenImageIO_v2_6_0::TypeDesc", %"class.std::vector", %"class.std::vector.0", i32, i32, i8, %"class.OpenImageIO_v2_6_0::ParamValueList" }
%"class.std::vector" = type { %"struct.std::_Vector_base" }
%"struct.std::_Vector_base" = type { %"struct.std::_Vector_base<OpenImageIO_v2_6_0::TypeDesc, std::allocator<OpenImageIO_v2_6_0::TypeDesc>>::_Vector_impl" }
%"struct.std::_Vector_base<OpenImageIO_v2_6_0::TypeDesc, std::allocator<OpenImageIO_v2_6_0::TypeDesc>>::_Vector_impl" = type { %"struct.std::_Vector_base<OpenImageIO_v2_6_0::TypeDesc, std::allocator<OpenImageIO_v2_6_0::TypeDesc>>::_Vector_impl_data" }
%"struct.std::_Vector_base<OpenImageIO_v2_6_0::TypeDesc, std::allocator<OpenImageIO_v2_6_0::TypeDesc>>::_Vector_impl_data" = type { ptr, ptr, ptr }
%"class.std::vector.0" = type { %"struct.std::_Vector_base.1" }
%"struct.std::_Vector_base.1" = type { %"struct.std::_Vector_base<std::__cxx11::basic_string<char>, std::allocator<std::__cxx11::basic_string<char>>>::_Vector_impl" }
%"struct.std::_Vector_base<std::__cxx11::basic_string<char>, std::allocator<std::__cxx11::basic_string<char>>>::_Vector_impl" = type { %"struct.std::_Vector_base<std::__cxx11::basic_string<char>, std::allocator<std::__cxx11::basic_string<char>>>::_Vector_impl_data" }
%"struct.std::_Vector_base<std::__cxx11::basic_string<char>, std::allocator<std::__cxx11::basic_string<char>>>::_Vector_impl_data" = type { ptr, ptr, ptr }
%"class.OpenImageIO_v2_6_0::ParamValueList" = type { %"class.std::vector.5" }
%"class.std::vector.5" = type { %"struct.std::_Vector_base.6" }
%"struct.std::_Vector_base.6" = type { %"struct.std::_Vector_base<OpenImageIO_v2_6_0::ParamValue, std::allocator<OpenImageIO_v2_6_0::ParamValue>>::_Vector_impl" }
%"struct.std::_Vector_base<OpenImageIO_v2_6_0::ParamValue, std::allocator<OpenImageIO_v2_6_0::ParamValue>>::_Vector_impl" = type { %"struct.std::_Vector_base<OpenImageIO_v2_6_0::ParamValue, std::allocator<OpenImageIO_v2_6_0::ParamValue>>::_Vector_impl_data" }
%"struct.std::_Vector_base<OpenImageIO_v2_6_0::ParamValue, std::allocator<OpenImageIO_v2_6_0::ParamValue>>::_Vector_impl_data" = type { ptr, ptr, ptr }
%"class.std::unique_ptr" = type { %"struct.std::__uniq_ptr_data" }
%"struct.std::__uniq_ptr_data" = type { %"class.std::__uniq_ptr_impl" }
%"class.std::__uniq_ptr_impl" = type { %"class.std::tuple" }
%"class.std::tuple" = type { %"struct.std::_Tuple_impl" }
%"struct.std::_Tuple_impl" = type { %"struct.std::_Tuple_impl.10", %"struct.std::_Head_base.11" }
%"struct.std::_Tuple_impl.10" = type { %"struct.std::_Head_base" }
%"struct.std::_Head_base" = type { ptr }
%"struct.std::_Head_base.11" = type { ptr }
%"class.std::__cxx11::basic_string" = type { %"struct.std::__cxx11::basic_string<char>::_Alloc_hider", i64, %union.anon.15 }
%"struct.std::__cxx11::basic_string<char>::_Alloc_hider" = type { ptr }
%union.anon.15 = type { i64, [8 x i8] }
%"class.std::vector.16" = type { %"struct.std::_Vector_base.17" }
%"struct.std::_Vector_base.17" = type { %"struct.std::_Vector_base<unsigned char, std::allocator<unsigned char>>::_Vector_impl" }
%"struct.std::_Vector_base<unsigned char, std::allocator<unsigned char>>::_Vector_impl" = type { %"struct.std::_Vector_base<unsigned char, std::allocator<unsigned char>>::_Vector_impl_data" }
%"struct.std::_Vector_base<unsigned char, std::allocator<unsigned char>>::_Vector_impl_data" = type { ptr, ptr, ptr }
%"struct.OpenImageIO_v2_6_0::DDS_pvt::dds_header" = type { i32, i32, i32, i32, i32, i32, i32, i32, [11 x i32], %"struct.OpenImageIO_v2_6_0::DDS_pvt::dds_pixformat", %"struct.OpenImageIO_v2_6_0::DDS_pvt::dds_caps", i32 }
%"struct.OpenImageIO_v2_6_0::DDS_pvt::dds_pixformat" = type { i32, i32, i32, i32, [4 x i32] }
%"struct.OpenImageIO_v2_6_0::DDS_pvt::dds_caps" = type { i32, i32, i32, i32 }
%"struct.OpenImageIO_v2_6_0::DDS_pvt::dds_header_dx10" = type { i32, i32, i32, i32, i32 }
%"class.std::lock_guard" = type { ptr }
%"class.__gnu_cxx::__normal_iterator.160" = type { ptr }

; Function Attrs: mustprogress nounwind uwtable
define linkonce_odr noundef nonnull align 8 dereferenceable(8) ptr @_ZNK9__gnu_cxx17__normal_iteratorIPKhSt6vectorIhSaIhEEE4baseEv(ptr noundef nonnull align 8 dereferenceable(8) %this) #4 comdat align 2 {
entry:
  %this.addr = alloca ptr, align 8
  store ptr %this, ptr %this.addr, align 8
  %this1 = load ptr, ptr %this.addr, align 8
  %_M_current = getelementptr inbounds %"class.__gnu_cxx::__normal_iterator.160", ptr %this1, i32 0, i32 0
  ret ptr %_M_current
}

; Function Attrs: mustprogress nounwind uwtable
define linkonce_odr void @_ZN9__gnu_cxx17__normal_iteratorIPKhSt6vectorIhSaIhEEEC2ERKS2_(ptr noundef nonnull align 8 dereferenceable(8) %this, ptr noundef nonnull align 8 dereferenceable(8) %__i) unnamed_addr #4 comdat align 2 {
entry:
  %this.addr = alloca ptr, align 8
  %__i.addr = alloca ptr, align 8
  store ptr %this, ptr %this.addr, align 8
  store ptr %__i, ptr %__i.addr, align 8
  %this1 = load ptr, ptr %this.addr, align 8
  %_M_current = getelementptr inbounds %"class.__gnu_cxx::__normal_iterator.160", ptr %this1, i32 0, i32 0
  %0 = load ptr, ptr %__i.addr, align 8
  %1 = load ptr, ptr %0, align 8
  store ptr %1, ptr %_M_current, align 8
  ret void
}

; Function Attrs: mustprogress nounwind uwtable
define linkonce_odr noundef zeroext i1 @_ZN9__gnu_cxxeqIPKhSt6vectorIhSaIhEEEEbRKNS_17__normal_iteratorIT_T0_EESB_(ptr noundef nonnull align 8 dereferenceable(8) %__lhs, ptr noundef nonnull align 8 dereferenceable(8) %__rhs) #4 comdat {
entry:
  %__lhs.addr = alloca ptr, align 8
  %__rhs.addr = alloca ptr, align 8
  store ptr %__lhs, ptr %__lhs.addr, align 8
  store ptr %__rhs, ptr %__rhs.addr, align 8
  %0 = load ptr, ptr %__lhs.addr, align 8
  %call = call noundef nonnull align 8 dereferenceable(8) ptr @_ZNK9__gnu_cxx17__normal_iteratorIPKhSt6vectorIhSaIhEEE4baseEv(ptr noundef nonnull align 8 dereferenceable(8) %0) #3
  %1 = load ptr, ptr %call, align 8
  %2 = load ptr, ptr %__rhs.addr, align 8
  %call1 = call noundef nonnull align 8 dereferenceable(8) ptr @_ZNK9__gnu_cxx17__normal_iteratorIPKhSt6vectorIhSaIhEEE4baseEv(ptr noundef nonnull align 8 dereferenceable(8) %2) #3
  %3 = load ptr, ptr %call1, align 8
  %cmp = icmp eq ptr %1, %3
  ret i1 %cmp
}

; Function Attrs: mustprogress nounwind uwtable
define linkonce_odr ptr @_ZNKSt6vectorIhSaIhEE3endEv(ptr noundef nonnull align 8 dereferenceable(24) %this) #4 comdat align 2 {
entry:
  %retval = alloca %"class.__gnu_cxx::__normal_iterator.160", align 8
  %this.addr = alloca ptr, align 8
  store ptr %this, ptr %this.addr, align 8
  %this1 = load ptr, ptr %this.addr, align 8
  %_M_impl = getelementptr inbounds %"struct.std::_Vector_base.17", ptr %this1, i32 0, i32 0
  %_M_finish = getelementptr inbounds %"struct.std::_Vector_base<unsigned char, std::allocator<unsigned char>>::_Vector_impl_data", ptr %_M_impl, i32 0, i32 1
  call void @_ZN9__gnu_cxx17__normal_iteratorIPKhSt6vectorIhSaIhEEEC2ERKS2_(ptr noundef nonnull align 8 dereferenceable(8) %retval, ptr noundef nonnull align 8 dereferenceable(8) %_M_finish) #3
  %coerce.dive = getelementptr inbounds %"class.__gnu_cxx::__normal_iterator.160", ptr %retval, i32 0, i32 0
  %0 = load ptr, ptr %coerce.dive, align 8
  ret ptr %0
}

; Function Attrs: mustprogress nounwind uwtable
define linkonce_odr ptr @_ZNKSt6vectorIhSaIhEE5beginEv(ptr noundef nonnull align 8 dereferenceable(24) %this) #4 comdat align 2 {
entry:
  %retval = alloca %"class.__gnu_cxx::__normal_iterator.160", align 8
  %this.addr = alloca ptr, align 8
  store ptr %this, ptr %this.addr, align 8
  %this1 = load ptr, ptr %this.addr, align 8
  %_M_impl = getelementptr inbounds %"struct.std::_Vector_base.17", ptr %this1, i32 0, i32 0
  %_M_start = getelementptr inbounds %"struct.std::_Vector_base<unsigned char, std::allocator<unsigned char>>::_Vector_impl_data", ptr %_M_impl, i32 0, i32 0
  call void @_ZN9__gnu_cxx17__normal_iteratorIPKhSt6vectorIhSaIhEEEC2ERKS2_(ptr noundef nonnull align 8 dereferenceable(8) %retval, ptr noundef nonnull align 8 dereferenceable(8) %_M_start) #3
  %coerce.dive = getelementptr inbounds %"class.__gnu_cxx::__normal_iterator.160", ptr %retval, i32 0, i32 0
  %0 = load ptr, ptr %coerce.dive, align 8
  ret ptr %0
}

; Function Attrs: mustprogress nounwind uwtable
define linkonce_odr noundef nonnull align 1 dereferenceable(1) ptr @_ZNSt6vectorIhSaIhEEixEm(ptr noundef nonnull align 8 dereferenceable(24) %this, i64 noundef %__n) #4 comdat align 2 {
entry:
  %this.addr = alloca ptr, align 8
  %__n.addr = alloca i64, align 8
  store ptr %this, ptr %this.addr, align 8
  store i64 %__n, ptr %__n.addr, align 8
  %this1 = load ptr, ptr %this.addr, align 8
  %_M_impl = getelementptr inbounds %"struct.std::_Vector_base.17", ptr %this1, i32 0, i32 0
  %_M_start = getelementptr inbounds %"struct.std::_Vector_base<unsigned char, std::allocator<unsigned char>>::_Vector_impl_data", ptr %_M_impl, i32 0, i32 0
  %0 = load ptr, ptr %_M_start, align 8
  %1 = load i64, ptr %__n.addr, align 8
  %add.ptr = getelementptr inbounds i8, ptr %0, i64 %1
  ret ptr %add.ptr
}

; Function Attrs: mustprogress nounwind uwtable
define linkonce_odr noundef nonnull align 8 dereferenceable(160) ptr @_ZNK18OpenImageIO_v2_6_010ImageInput4specEv(ptr noundef nonnull align 8 dereferenceable(184) %this) unnamed_addr #4 comdat align 2 {
entry:
  %this.addr = alloca ptr, align 8
  store ptr %this, ptr %this.addr, align 8
  %this1 = load ptr, ptr %this.addr, align 8
  %m_spec = getelementptr inbounds %"class.OpenImageIO_v2_6_0::ImageInput", ptr %this1, i32 0, i32 1
  ret ptr %m_spec
}

; Function Attrs: mustprogress uwtable
define hidden noundef zeroext i1 @_ZN18OpenImageIO_v2_6_08DDSInput17readimg_scanlinesEv(ptr noundef nonnull align 8 dereferenceable(448) %this) #6 align 2 {
entry:
  %this.addr = alloca ptr, align 8
  store ptr %this, ptr %this.addr, align 8
  %this1 = load ptr, ptr %this.addr, align 8
  %m_buf = getelementptr inbounds %"class.OpenImageIO_v2_6_0::DDSInput", ptr %this1, i32 0, i32 2
  %m_spec = getelementptr inbounds %"class.OpenImageIO_v2_6_0::ImageInput", ptr %this1, i32 0, i32 1
  %call = call noundef i64 @_ZNK18OpenImageIO_v2_6_09ImageSpec14scanline_bytesEb(ptr noundef nonnull align 8 dereferenceable(160) %m_spec, i1 noundef zeroext false) #3
  %m_spec2 = getelementptr inbounds %"class.OpenImageIO_v2_6_0::ImageInput", ptr %this1, i32 0, i32 1
  %height = getelementptr inbounds %"class.OpenImageIO_v2_6_0::ImageSpec", ptr %m_spec2, i32 0, i32 4
  %0 = load i32, ptr %height, align 8
  %conv = sext i32 %0 to i64
  %mul = mul i64 %call, %conv
  %m_spec3 = getelementptr inbounds %"class.OpenImageIO_v2_6_0::ImageInput", ptr %this1, i32 0, i32 1
  %depth = getelementptr inbounds %"class.OpenImageIO_v2_6_0::ImageSpec", ptr %m_spec3, i32 0, i32 5
  %1 = load i32, ptr %depth, align 4
  %conv4 = sext i32 %1 to i64
  %mul5 = mul i64 %mul, %conv4
  call void @_ZNSt6vectorIhSaIhEE6resizeEm(ptr noundef nonnull align 8 dereferenceable(24) %m_buf, i64 noundef %mul5)
  %m_buf6 = getelementptr inbounds %"class.OpenImageIO_v2_6_0::DDSInput", ptr %this1, i32 0, i32 2
  %call7 = call noundef nonnull align 1 dereferenceable(1) ptr @_ZNSt6vectorIhSaIhEEixEm(ptr noundef nonnull align 8 dereferenceable(24) %m_buf6, i64 noundef 0) #3
  %m_spec8 = getelementptr inbounds %"class.OpenImageIO_v2_6_0::ImageInput", ptr %this1, i32 0, i32 1
  %width = getelementptr inbounds %"class.OpenImageIO_v2_6_0::ImageSpec", ptr %m_spec8, i32 0, i32 3
  %2 = load i32, ptr %width, align 4
  %m_spec9 = getelementptr inbounds %"class.OpenImageIO_v2_6_0::ImageInput", ptr %this1, i32 0, i32 1
  %height10 = getelementptr inbounds %"class.OpenImageIO_v2_6_0::ImageSpec", ptr %m_spec9, i32 0, i32 4
  %3 = load i32, ptr %height10, align 8
  %m_spec11 = getelementptr inbounds %"class.OpenImageIO_v2_6_0::ImageInput", ptr %this1, i32 0, i32 1
  %depth12 = getelementptr inbounds %"class.OpenImageIO_v2_6_0::ImageSpec", ptr %m_spec11, i32 0, i32 5
  %4 = load i32, ptr %depth12, align 4
  %call13 = call noundef zeroext i1 @_ZN18OpenImageIO_v2_6_08DDSInput16internal_readimgEPhiii(ptr noundef nonnull align 8 dereferenceable(448) %this1, ptr noundef %call7, i32 noundef %2, i32 noundef %3, i32 noundef %4)
  ret i1 %call13
}

; Function Attrs: mustprogress nounwind uwtable
define linkonce_odr noundef zeroext i1 @_ZNKSt6vectorIhSaIhEE5emptyEv(ptr noundef nonnull align 8 dereferenceable(24) %this) #4 comdat align 2 {
entry:
  %this.addr = alloca ptr, align 8
  %ref.tmp = alloca %"class.__gnu_cxx::__normal_iterator.160", align 8
  %ref.tmp2 = alloca %"class.__gnu_cxx::__normal_iterator.160", align 8
  store ptr %this, ptr %this.addr, align 8
  %this1 = load ptr, ptr %this.addr, align 8
  %call = call ptr @_ZNKSt6vectorIhSaIhEE5beginEv(ptr noundef nonnull align 8 dereferenceable(24) %this1) #3
  %coerce.dive = getelementptr inbounds %"class.__gnu_cxx::__normal_iterator.160", ptr %ref.tmp, i32 0, i32 0
  store ptr %call, ptr %coerce.dive, align 8
  %call3 = call ptr @_ZNKSt6vectorIhSaIhEE3endEv(ptr noundef nonnull align 8 dereferenceable(24) %this1) #3
  %coerce.dive4 = getelementptr inbounds %"class.__gnu_cxx::__normal_iterator.160", ptr %ref.tmp2, i32 0, i32 0
  store ptr %call3, ptr %coerce.dive4, align 8
  %call5 = call noundef zeroext i1 @_ZN9__gnu_cxxeqIPKhSt6vectorIhSaIhEEEEbRKNS_17__normal_iteratorIT_T0_EESB_(ptr noundef nonnull align 8 dereferenceable(8) %ref.tmp, ptr noundef nonnull align 8 dereferenceable(8) %ref.tmp2) #3
  ret i1 %call5
}

; Function Attrs: mustprogress nounwind uwtable
define linkonce_odr void @_ZNSt10lock_guardIRKN18OpenImageIO_v2_6_010ImageInputEED2Ev(ptr noundef nonnull align 8 dereferenceable(8) %this) unnamed_addr #4 comdat align 2 personality ptr @__gxx_personality_v0 {
entry:
  %this.addr = alloca ptr, align 8
  store ptr %this, ptr %this.addr, align 8
  %this1 = load ptr, ptr %this.addr, align 8
  %_M_device = getelementptr inbounds %"class.std::lock_guard", ptr %this1, i32 0, i32 0
  %0 = load ptr, ptr %_M_device, align 8
  invoke void @_ZNK18OpenImageIO_v2_6_010ImageInput6unlockEv(ptr noundef nonnull align 8 dereferenceable(184) %0)
          to label %invoke.cont unwind label %terminate.lpad

invoke.cont:                                      ; preds = %entry
  ret void

terminate.lpad:                                   ; preds = %entry
  %1 = landingpad { ptr, i32 }
          catch ptr null
  %2 = extractvalue { ptr, i32 } %1, 0
  call void @__clang_call_terminate(ptr %2) #17
  unreachable
}

; Function Attrs: mustprogress uwtable
define linkonce_odr void @_ZNSt10lock_guardIRKN18OpenImageIO_v2_6_010ImageInputEEC2ES3_(ptr noundef nonnull align 8 dereferenceable(8) %this, ptr noundef nonnull align 8 dereferenceable(184) %__m) unnamed_addr #6 comdat align 2 {
entry:
  %this.addr = alloca ptr, align 8
  %__m.addr = alloca ptr, align 8
  store ptr %this, ptr %this.addr, align 8
  store ptr %__m, ptr %__m.addr, align 8
  %this1 = load ptr, ptr %this.addr, align 8
  %_M_device = getelementptr inbounds %"class.std::lock_guard", ptr %this1, i32 0, i32 0
  %0 = load ptr, ptr %__m.addr, align 8
  store ptr %0, ptr %_M_device, align 8
  %_M_device2 = getelementptr inbounds %"class.std::lock_guard", ptr %this1, i32 0, i32 0
  %1 = load ptr, ptr %_M_device2, align 8
  call void @_ZNK18OpenImageIO_v2_6_010ImageInput4lockEv(ptr noundef nonnull align 8 dereferenceable(184) %1)
  ret void
}

; Function Attrs: mustprogress uwtable
define hidden noundef zeroext i1 @_ZN18OpenImageIO_v2_6_08DDSInput20read_native_scanlineEiiiiPv(ptr noundef nonnull align 8 dereferenceable(448) %this, i32 noundef %subimage, i32 noundef %miplevel, i32 noundef %y, i32 noundef %z, ptr noundef %data) unnamed_addr #6 align 2 personality ptr @__gxx_personality_v0 {
entry:
  %retval = alloca i1, align 1
  %this.addr = alloca ptr, align 8
  %subimage.addr = alloca i32, align 4
  %miplevel.addr = alloca i32, align 4
  %y.addr = alloca i32, align 4
  %z.addr = alloca i32, align 4
  %data.addr = alloca ptr, align 8
  %lock = alloca %"class.std::lock_guard", align 8
  %exn.slot = alloca ptr, align 8
  %ehselector.slot = alloca i32, align 4
  %cleanup.dest.slot = alloca i32, align 4
  %size = alloca i64, align 8
  store ptr %this, ptr %this.addr, align 8
  store i32 %subimage, ptr %subimage.addr, align 4
  store i32 %miplevel, ptr %miplevel.addr, align 4
  store i32 %y, ptr %y.addr, align 4
  store i32 %z, ptr %z.addr, align 4
  store ptr %data, ptr %data.addr, align 8
  %this1 = load ptr, ptr %this.addr, align 8
  call void @_ZNSt10lock_guardIRKN18OpenImageIO_v2_6_010ImageInputEEC2ES3_(ptr noundef nonnull align 8 dereferenceable(8) %lock, ptr noundef nonnull align 8 dereferenceable(184) %this1)
  %0 = load i32, ptr %subimage.addr, align 4
  %1 = load i32, ptr %miplevel.addr, align 4
  %call = invoke noundef zeroext i1 @_ZN18OpenImageIO_v2_6_08DDSInput13seek_subimageEii(ptr noundef nonnull align 8 dereferenceable(448) %this1, i32 noundef %0, i32 noundef %1)
          to label %invoke.cont unwind label %lpad

invoke.cont:                                      ; preds = %entry
  br i1 %call, label %if.end, label %if.then

if.then:                                          ; preds = %invoke.cont
  store i1 false, ptr %retval, align 1
  store i32 1, ptr %cleanup.dest.slot, align 4
  br label %cleanup

lpad:                                             ; preds = %if.end8, %if.then5, %entry
  %2 = landingpad { ptr, i32 }
          cleanup
  %3 = extractvalue { ptr, i32 } %2, 0
  store ptr %3, ptr %exn.slot, align 8
  %4 = extractvalue { ptr, i32 } %2, 1
  store i32 %4, ptr %ehselector.slot, align 4
  call void @_ZNSt10lock_guardIRKN18OpenImageIO_v2_6_010ImageInputEED2Ev(ptr noundef nonnull align 8 dereferenceable(8) %lock) #3
  br label %eh.resume

if.end:                                           ; preds = %invoke.cont
  %m_dds = getelementptr inbounds %"class.OpenImageIO_v2_6_0::DDSInput", ptr %this1, i32 0, i32 11
  %caps = getelementptr inbounds %"struct.OpenImageIO_v2_6_0::DDS_pvt::dds_header", ptr %m_dds, i32 0, i32 10
  %flags2 = getelementptr inbounds %"struct.OpenImageIO_v2_6_0::DDS_pvt::dds_caps", ptr %caps, i32 0, i32 1
  %5 = load i32, ptr %flags2, align 4
  %and = and i32 %5, 512
  %tobool = icmp ne i32 %and, 0
  br i1 %tobool, label %if.then2, label %if.end3

if.then2:                                         ; preds = %if.end
  store i1 false, ptr %retval, align 1
  store i32 1, ptr %cleanup.dest.slot, align 4
  br label %cleanup

if.end3:                                          ; preds = %if.end
  %m_buf = getelementptr inbounds %"class.OpenImageIO_v2_6_0::DDSInput", ptr %this1, i32 0, i32 2
  %call4 = call noundef zeroext i1 @_ZNKSt6vectorIhSaIhEE5emptyEv(ptr noundef nonnull align 8 dereferenceable(24) %m_buf) #3
  br i1 %call4, label %if.then5, label %if.end8

if.then5:                                         ; preds = %if.end3
  %call7 = invoke noundef zeroext i1 @_ZN18OpenImageIO_v2_6_08DDSInput17readimg_scanlinesEv(ptr noundef nonnull align 8 dereferenceable(448) %this1)
          to label %invoke.cont6 unwind label %lpad

invoke.cont6:                                     ; preds = %if.then5
  br label %if.end8

if.end8:                                          ; preds = %invoke.cont6, %if.end3
  %call10 = invoke noundef nonnull align 8 dereferenceable(160) ptr @_ZNK18OpenImageIO_v2_6_010ImageInput4specEv(ptr noundef nonnull align 8 dereferenceable(184) %this1)
          to label %invoke.cont9 unwind label %lpad

invoke.cont9:                                     ; preds = %if.end8
  %call11 = call noundef i64 @_ZNK18OpenImageIO_v2_6_09ImageSpec14scanline_bytesEb(ptr noundef nonnull align 8 dereferenceable(160) %call10, i1 noundef zeroext false) #3
  store i64 %call11, ptr %size, align 8
  %6 = load ptr, ptr %data.addr, align 8
  %m_buf12 = getelementptr inbounds %"class.OpenImageIO_v2_6_0::DDSInput", ptr %this1, i32 0, i32 2
  %call13 = call noundef nonnull align 1 dereferenceable(1) ptr @_ZNSt6vectorIhSaIhEEixEm(ptr noundef nonnull align 8 dereferenceable(24) %m_buf12, i64 noundef 0) #3
  %7 = load i32, ptr %z.addr, align 4
  %m_spec = getelementptr inbounds %"class.OpenImageIO_v2_6_0::ImageInput", ptr %this1, i32 0, i32 1
  %height = getelementptr inbounds %"class.OpenImageIO_v2_6_0::ImageSpec", ptr %m_spec, i32 0, i32 4
  %8 = load i32, ptr %height, align 8
  %mul = mul nsw i32 %7, %8
  %conv = sext i32 %mul to i64
  %9 = load i64, ptr %size, align 8
  %mul14 = mul i64 %conv, %9
  %add.ptr = getelementptr inbounds i8, ptr %call13, i64 %mul14
  %10 = load i32, ptr %y.addr, align 4
  %conv15 = sext i32 %10 to i64
  %11 = load i64, ptr %size, align 8
  %mul16 = mul i64 %conv15, %11
  %add.ptr17 = getelementptr inbounds i8, ptr %add.ptr, i64 %mul16
  %12 = load i64, ptr %size, align 8
  call void @llvm.memcpy.p0.p0.i64(ptr align 1 %6, ptr align 1 %add.ptr17, i64 %12, i1 false)
  store i1 true, ptr %retval, align 1
  store i32 1, ptr %cleanup.dest.slot, align 4
  br label %cleanup

cleanup:                                          ; preds = %invoke.cont9, %if.then2, %if.then
  call void @_ZNSt10lock_guardIRKN18OpenImageIO_v2_6_010ImageInputEED2Ev(ptr noundef nonnull align 8 dereferenceable(8) %lock) #3
  %13 = load i1, ptr %retval, align 1
  ret i1 %13

eh.resume:                                        ; preds = %lpad
  %exn = load ptr, ptr %exn.slot, align 8
  %sel = load i32, ptr %ehselector.slot, align 4
  %lpad.val = insertvalue { ptr, i32 } poison, ptr %exn, 0
  %lpad.val18 = insertvalue { ptr, i32 } %lpad.val, i32 %sel, 1
  resume { ptr, i32 } %lpad.val18
}