; Function Attrs: mustprogress uwtable
define hidden noundef zeroext i1 @_ZN18OpenImageIO_v2_6_08DDSInput20read_native_scanlineEiiiiPv(ptr noundef nonnull align 8 dereferenceable(448) %this, i32 noundef %subimage, i32 noundef %miplevel, i32 noundef %y, i32 noundef %z, ptr nocapture noundef writeonly %data) unnamed_addr #11 align 2 personality ptr @__gxx_personality_v0 {
entry:
  tail call void @_ZNK18OpenImageIO_v2_6_010ImageInput4lockEv(ptr noundef nonnull align 8 dereferenceable(184) %this)
  %call = invoke noundef zeroext i1 @_ZN18OpenImageIO_v2_6_08DDSInput13seek_subimageEii(ptr noundef nonnull align 8 dereferenceable(448) %this, i32 noundef %subimage, i32 noundef %miplevel)
          to label %invoke.cont unwind label %lpad

invoke.cont:                                      ; preds = %entry
  br i1 %call, label %if.end, label %cleanup

lpad:                                             ; preds = %.noexc, %if.then5, %entry
  %0 = landingpad { ptr, i32 }
          cleanup
  invoke void @_ZNK18OpenImageIO_v2_6_010ImageInput6unlockEv(ptr noundef nonnull align 8 dereferenceable(184) %this)
          to label %_ZNSt10lock_guardIRKN18OpenImageIO_v2_6_010ImageInputEED2Ev.exit unwind label %terminate.lpad.i

terminate.lpad.i:                                 ; preds = %lpad
  %1 = landingpad { ptr, i32 }
          catch ptr null
  %2 = extractvalue { ptr, i32 } %1, 0
  tail call void @__clang_call_terminate(ptr %2) #28
  unreachable

_ZNSt10lock_guardIRKN18OpenImageIO_v2_6_010ImageInputEED2Ev.exit: ; preds = %lpad
  resume { ptr, i32 } %0

if.end:                                           ; preds = %invoke.cont
  %flags2 = getelementptr inbounds i8, ptr %this, i64 408
  %3 = load i32, ptr %flags2, align 8
  %and = and i32 %3, 512
  %tobool.not = icmp eq i32 %and, 0
  br i1 %tobool.not, label %if.end3, label %cleanup

if.end3:                                          ; preds = %if.end
  %m_buf = getelementptr inbounds i8, ptr %this, i64 216
  %4 = load ptr, ptr %m_buf, align 8
  %_M_finish.i.i = getelementptr inbounds i8, ptr %this, i64 224
  %5 = load ptr, ptr %_M_finish.i.i, align 8
  %cmp.i.i = icmp eq ptr %4, %5
  br i1 %cmp.i.i, label %if.then5, label %if.end8

if.then5:                                         ; preds = %if.end3
  %m_spec.i = getelementptr inbounds i8, ptr %this, i64 8
  %call.i = tail call noundef i64 @_ZNK18OpenImageIO_v2_6_09ImageSpec14scanline_bytesEb(ptr noundef nonnull align 8 dereferenceable(160) %m_spec.i, i1 noundef zeroext false) #26
  %height.i = getelementptr inbounds i8, ptr %this, i64 24
  %6 = load i32, ptr %height.i, align 8
  %conv.i = sext i32 %6 to i64
  %mul.i = mul i64 %call.i, %conv.i
  %depth.i = getelementptr inbounds i8, ptr %this, i64 28
  %7 = load i32, ptr %depth.i, align 4
  %conv4.i = sext i32 %7 to i64
  %mul5.i = mul i64 %mul.i, %conv4.i
  invoke void @_ZNSt6vectorIhSaIhEE6resizeEm(ptr noundef nonnull align 8 dereferenceable(24) %m_buf, i64 noundef %mul5.i)
          to label %.noexc unwind label %lpad

.noexc:                                           ; preds = %if.then5
  %8 = load ptr, ptr %m_buf, align 8
  %width.i = getelementptr inbounds i8, ptr %this, i64 20
  %9 = load i32, ptr %width.i, align 4
  %10 = load i32, ptr %height.i, align 8
  %11 = load i32, ptr %depth.i, align 4
  %call13.i3 = invoke noundef zeroext i1 @_ZN18OpenImageIO_v2_6_08DDSInput16internal_readimgEPhiii(ptr noundef nonnull align 8 dereferenceable(448) %this, ptr noundef nonnull %8, i32 noundef %9, i32 noundef %10, i32 noundef %11)
          to label %if.end8 unwind label %lpad

if.end8:                                          ; preds = %.noexc, %if.end3
  %m_spec.i4 = getelementptr inbounds i8, ptr %this, i64 8
  %call11 = tail call noundef i64 @_ZNK18OpenImageIO_v2_6_09ImageSpec14scanline_bytesEb(ptr noundef nonnull align 8 dereferenceable(160) %m_spec.i4, i1 noundef zeroext false) #26
  %12 = load ptr, ptr %m_buf, align 8
  %height = getelementptr inbounds i8, ptr %this, i64 24
  %13 = load i32, ptr %height, align 8
  %mul = mul nsw i32 %13, %z
  %conv = sext i32 %mul to i64
  %mul14 = mul i64 %call11, %conv
  %add.ptr = getelementptr inbounds i8, ptr %12, i64 %mul14
  %conv15 = sext i32 %y to i64
  %mul16 = mul i64 %call11, %conv15
  %add.ptr17 = getelementptr inbounds i8, ptr %add.ptr, i64 %mul16
  tail call void @llvm.memcpy.p0.p0.i64(ptr align 1 %data, ptr nonnull align 1 %add.ptr17, i64 %call11, i1 false)
  br label %cleanup

cleanup:                                          ; preds = %if.end, %invoke.cont, %if.end8
  %retval.0 = phi i1 [ true, %if.end8 ], [ false, %invoke.cont ], [ false, %if.end ]
  invoke void @_ZNK18OpenImageIO_v2_6_010ImageInput6unlockEv(ptr noundef nonnull align 8 dereferenceable(184) %this)
          to label %_ZNSt10lock_guardIRKN18OpenImageIO_v2_6_010ImageInputEED2Ev.exit6 unwind label %terminate.lpad.i5

terminate.lpad.i5:                                ; preds = %cleanup
  %14 = landingpad { ptr, i32 }
          catch ptr null
  %15 = extractvalue { ptr, i32 } %14, 0
  tail call void @__clang_call_terminate(ptr %15) #28
  unreachable

_ZNSt10lock_guardIRKN18OpenImageIO_v2_6_010ImageInputEED2Ev.exit6: ; preds = %cleanup
  ret i1 %retval.0
}